target datalayout = "e-m:e-p270:32:32-p271:32:32-p272:64:64-i64:64-i128:128-f80:128-n8:16:32:64-S128"
target triple = "x86_64-unknown-linux-gnu"

%"class.v8::IndirectHandleBase" = type { ptr }
%"class.v8::Local.43" = type { %"class.v8::LocalBase.44" }
%"class.v8::LocalBase.44" = type { %"class.v8::IndirectHandleBase" }
%"class.std::basic_string_view" = type { i64, ptr }
%"struct.v8::FastOneByteString" = type { ptr, i32 }

; Function Attrs: mustprogress nounwind uwtable
define linkonce_odr dso_local void @_ZNSt17basic_string_viewIcSt11char_traitsIcEEC2EPKcm(ptr noundef nonnull align 8 dereferenceable(16) %this, ptr noundef %__str, i64 noundef %__len) unnamed_addr #4 comdat align 2 {
entry:
  %this.addr = alloca ptr, align 8
  %__str.addr = alloca ptr, align 8
  %__len.addr = alloca i64, align 8
  store ptr %this, ptr %this.addr, align 8
  store ptr %__str, ptr %__str.addr, align 8
  store i64 %__len, ptr %__len.addr, align 8
  %this1 = load ptr, ptr %this.addr, align 8
  %_M_len = getelementptr inbounds %"class.std::basic_string_view", ptr %this1, i32 0, i32 0
  %0 = load i64, ptr %__len.addr, align 8
  store i64 %0, ptr %_M_len, align 8
  %_M_str = getelementptr inbounds %"class.std::basic_string_view", ptr %this1, i32 0, i32 1
  %1 = load ptr, ptr %__str.addr, align 8
  store ptr %1, ptr %_M_str, align 8
  ret void
}

; Function Attrs: mustprogress nounwind uwtable
define dso_local noundef zeroext i1 @_ZN4node3url11BindingData20FastCanParseWithBaseEN2v85LocalINS2_5ValueEEERKNS2_17FastOneByteStringES8_(ptr %receiver.coerce, ptr noundef nonnull align 8 dereferenceable(16) %input, ptr noundef nonnull align 8 dereferenceable(16) %base) #4 align 2 {
entry:
  %receiver = alloca %"class.v8::Local.43", align 8
  %input.addr = alloca ptr, align 8
  %base.addr = alloca ptr, align 8
  %base_view = alloca %"class.std::basic_string_view", align 8
  %agg.tmp = alloca %"class.std::basic_string_view", align 8
  %coerce.dive = getelementptr inbounds %"class.v8::Local.43", ptr %receiver, i32 0, i32 0
  %coerce.dive1 = getelementptr inbounds %"class.v8::LocalBase.44", ptr %coerce.dive, i32 0, i32 0
  %coerce.dive2 = getelementptr inbounds %"class.v8::IndirectHandleBase", ptr %coerce.dive1, i32 0, i32 0
  store ptr %receiver.coerce, ptr %coerce.dive2, align 8
  store ptr %input, ptr %input.addr, align 8
  store ptr %base, ptr %base.addr, align 8
  %0 = load ptr, ptr %base.addr, align 8
  %data = getelementptr inbounds %"struct.v8::FastOneByteString", ptr %0, i32 0, i32 0
  %1 = load ptr, ptr %data, align 8
  %2 = load ptr, ptr %base.addr, align 8
  %length = getelementptr inbounds %"struct.v8::FastOneByteString", ptr %2, i32 0, i32 1
  %3 = load i32, ptr %length, align 8
  %conv = zext i32 %3 to i64
  call void @_ZNSt17basic_string_viewIcSt11char_traitsIcEEC2EPKcm(ptr noundef nonnull align 8 dereferenceable(16) %base_view, ptr noundef %1, i64 noundef %conv) #3
  %4 = load ptr, ptr %input.addr, align 8
  %data3 = getelementptr inbounds %"struct.v8::FastOneByteString", ptr %4, i32 0, i32 0
  %5 = load ptr, ptr %data3, align 8
  %6 = load ptr, ptr %input.addr, align 8
  %length4 = getelementptr inbounds %"struct.v8::FastOneByteString", ptr %6, i32 0, i32 1
  %7 = load i32, ptr %length4, align 8
  %conv5 = zext i32 %7 to i64
  call void @_ZNSt17basic_string_viewIcSt11char_traitsIcEEC2EPKcm(ptr noundef nonnull align 8 dereferenceable(16) %agg.tmp, ptr noundef %5, i64 noundef %conv5) #3
  %8 = getelementptr inbounds { i64, ptr }, ptr %agg.tmp, i32 0, i32 0
  %9 = load i64, ptr %8, align 8
  %10 = getelementptr inbounds { i64, ptr }, ptr %agg.tmp, i32 0, i32 1
  %11 = load ptr, ptr %10, align 8
  %call = call noundef zeroext i1 @_ZN3ada9can_parseESt17basic_string_viewIcSt11char_traitsIcEEPKS3_(i64 %9, ptr %11, ptr noundef %base_view)
  ret i1 %call
}