; Function Attrs: mustprogress nounwind uwtable
define dso_local noundef zeroext i1 @_ZN4node3url11BindingData20FastCanParseWithBaseEN2v85LocalINS2_5ValueEEERKNS2_17FastOneByteStringES8_(ptr nocapture readnone %receiver.coerce, ptr nocapture noundef nonnull readonly align 8 dereferenceable(16) %input, ptr nocapture noundef nonnull readonly align 8 dereferenceable(16) %base) #3 align 2 {
entry:
  %base_view = alloca %"class.std::basic_string_view", align 8
  %0 = load ptr, ptr %base, align 8
  %length = getelementptr inbounds i8, ptr %base, i64 8
  %1 = load i32, ptr %length, align 8
  %conv = zext i32 %1 to i64
  store i64 %conv, ptr %base_view, align 8
  %_M_str.i = getelementptr inbounds i8, ptr %base_view, i64 8
  store ptr %0, ptr %_M_str.i, align 8
  %2 = load ptr, ptr %input, align 8
  %length4 = getelementptr inbounds i8, ptr %input, i64 8
  %3 = load i32, ptr %length4, align 8
  %conv5 = zext i32 %3 to i64
  %call = call noundef zeroext i1 @_ZN3ada9can_parseESt17basic_string_viewIcSt11char_traitsIcEEPKS3_(i64 %conv5, ptr %2, ptr noundef nonnull %base_view) #22
  ret i1 %call
}